target datalayout = "e-m:e-p270:32:32-p271:32:32-p272:64:64-i64:64-i128:128-f80:128-n8:16:32:64-S128"
target triple = "x86_64-pc-linux-gnu"

%struct.ExprState = type { i32, i8, i8, i64, ptr, ptr, ptr, ptr, ptr, i32, i32, ptr, ptr, ptr, ptr, ptr, ptr, ptr }
%struct.ExprContext = type { i32, ptr, ptr, ptr, ptr, ptr, ptr, ptr, ptr, ptr, i64, i8, i64, i8, ptr, ptr, ptr, ptr }
%struct.TupleTableSlot = type { i32, i16, i16, ptr, ptr, ptr, ptr, ptr, %struct.ItemPointerData, i32 }
%struct.ItemPointerData = type { %struct.BlockIdData, i16 }
%struct.BlockIdData = type { i16, i16 }
%struct.FunctionCallInfoBaseData = type { ptr, ptr, ptr, i32, i8, i16, [0 x %struct.NullableDatum] }
%struct.NullableDatum = type { i64, i8 }
%struct.FmgrInfo = type { ptr, i32, i16, i8, i8, i8, ptr, ptr, ptr }
%struct.AggState = type { %struct.ScanState, ptr, i32, i32, i32, i32, ptr, i32, i32, ptr, ptr, ptr, ptr, ptr, ptr, ptr, ptr, i8, i8, i32, i32, ptr, ptr, ptr, i32, i8, i32, ptr, ptr, ptr, ptr, ptr, ptr, i8, i32, ptr, ptr, ptr, ptr, ptr, ptr, i8, i8, i64, i64, i32, double, i64, i64, i64, i32, ptr, ptr, ptr, ptr }
%struct.ScanState = type { %struct.PlanState, ptr, ptr, ptr }
%struct.PlanState = type { i32, ptr, ptr, ptr, ptr, ptr, ptr, ptr, ptr, ptr, ptr, ptr, ptr, ptr, ptr, ptr, ptr, ptr, i8, ptr, ptr, ptr, ptr, ptr, i8, i8, i8, i8, i8, i8, i8, i8 }
%struct.TupleTableSlotOps = type { i64, ptr, ptr, ptr, ptr, ptr, ptr, ptr, ptr, ptr, ptr, ptr, ptr }
%struct.AggStatePerTransData = type { ptr, i8, i8, i32, i32, i32, i32, i32, i32, %struct.FmgrInfo, %struct.FmgrInfo, %struct.FmgrInfo, i32, i32, i32, ptr, ptr, ptr, ptr, %struct.FmgrInfo, ptr, i64, i8, i16, i16, i8, i8, ptr, ptr, ptr, i64, i8, i8, ptr, ptr, ptr, ptr }

@CurrentMemoryContext = external global ptr, align 8

; Function Attrs: inlinehint nounwind uwtable
define internal ptr @MemoryContextSwitchTo(ptr noundef %0) #2 {
  %2 = alloca ptr, align 8
  %3 = alloca ptr, align 8
  store ptr %0, ptr %2, align 8
  call void @llvm.lifetime.start.p0(i64 8, ptr %3) #11
  %4 = load ptr, ptr @CurrentMemoryContext, align 8
  store ptr %4, ptr %3, align 8
  %5 = load ptr, ptr %2, align 8
  store ptr %5, ptr @CurrentMemoryContext, align 8
  %6 = load ptr, ptr %3, align 8
  call void @llvm.lifetime.end.p0(i64 8, ptr %3) #11
  ret ptr %6
}

; Function Attrs: inlinehint nounwind uwtable
define internal zeroext i1 @DatumGetBool(i64 noundef %0) #2 {
  %2 = alloca i64, align 8
  store i64 %0, ptr %2, align 8
  %3 = load i64, ptr %2, align 8
  %4 = icmp ne i64 %3, 0
  ret i1 %4
}

; Function Attrs: inlinehint nounwind uwtable
define internal i64 @ExecEvalExprSwitchContext(ptr noundef %0, ptr noundef %1, ptr noundef %2) #2 {
  %4 = alloca ptr, align 8
  %5 = alloca ptr, align 8
  %6 = alloca ptr, align 8
  %7 = alloca i64, align 8
  %8 = alloca ptr, align 8
  store ptr %0, ptr %4, align 8
  store ptr %1, ptr %5, align 8
  store ptr %2, ptr %6, align 8
  call void @llvm.lifetime.start.p0(i64 8, ptr %7) #11
  call void @llvm.lifetime.start.p0(i64 8, ptr %8) #11
  %9 = load ptr, ptr %5, align 8
  %10 = getelementptr inbounds nuw %struct.ExprContext, ptr %9, i32 0, i32 5
  %11 = load ptr, ptr %10, align 8
  %12 = call ptr @MemoryContextSwitchTo(ptr noundef %11)
  store ptr %12, ptr %8, align 8
  %13 = load ptr, ptr %4, align 8
  %14 = getelementptr inbounds nuw %struct.ExprState, ptr %13, i32 0, i32 6
  %15 = load ptr, ptr %14, align 8
  %16 = load ptr, ptr %4, align 8
  %17 = load ptr, ptr %5, align 8
  %18 = load ptr, ptr %6, align 8
  %19 = call i64 %15(ptr noundef %16, ptr noundef %17, ptr noundef %18)
  store i64 %19, ptr %7, align 8
  %20 = load ptr, ptr %8, align 8
  %21 = call ptr @MemoryContextSwitchTo(ptr noundef %20)
  %22 = load i64, ptr %7, align 8
  call void @llvm.lifetime.end.p0(i64 8, ptr %8) #11
  call void @llvm.lifetime.end.p0(i64 8, ptr %7) #11
  ret i64 %22
}

; Function Attrs: inlinehint nounwind uwtable
define internal ptr @ExecCopySlot(ptr noundef %0, ptr noundef %1) #2 {
  %3 = alloca ptr, align 8
  %4 = alloca ptr, align 8
  store ptr %0, ptr %3, align 8
  store ptr %1, ptr %4, align 8
  %5 = load ptr, ptr %3, align 8
  %6 = getelementptr inbounds nuw %struct.TupleTableSlot, ptr %5, i32 0, i32 3
  %7 = load ptr, ptr %6, align 8
  %8 = getelementptr inbounds nuw %struct.TupleTableSlotOps, ptr %7, i32 0, i32 8
  %9 = load ptr, ptr %8, align 8
  %10 = load ptr, ptr %3, align 8
  %11 = load ptr, ptr %4, align 8
  call void %9(ptr noundef %10, ptr noundef %11)
  %12 = load ptr, ptr %3, align 8
  ret ptr %12
}

; Function Attrs: inlinehint nounwind uwtable
define internal zeroext i1 @ExecQual(ptr noundef %0, ptr noundef %1) #2 {
  %3 = alloca i1, align 1
  %4 = alloca ptr, align 8
  %5 = alloca ptr, align 8
  %6 = alloca i64, align 8
  %7 = alloca i8, align 1
  %8 = alloca i32, align 4
  store ptr %0, ptr %4, align 8
  store ptr %1, ptr %5, align 8
  call void @llvm.lifetime.start.p0(i64 8, ptr %6) #11
  call void @llvm.lifetime.start.p0(i64 1, ptr %7) #11
  %9 = load ptr, ptr %4, align 8
  %10 = icmp eq ptr %9, null
  br i1 %10, label %11, label %12

11:                                               ; preds = %2
  store i1 true, ptr %3, align 1
  store i32 1, ptr %8, align 4
  br label %18

12:                                               ; preds = %2
  %13 = load ptr, ptr %4, align 8
  %14 = load ptr, ptr %5, align 8
  %15 = call i64 @ExecEvalExprSwitchContext(ptr noundef %13, ptr noundef %14, ptr noundef %7)
  store i64 %15, ptr %6, align 8
  %16 = load i64, ptr %6, align 8
  %17 = call zeroext i1 @DatumGetBool(i64 noundef %16)
  store i1 %17, ptr %3, align 1
  store i32 1, ptr %8, align 4
  br label %18

18:                                               ; preds = %12, %11
  call void @llvm.lifetime.end.p0(i64 1, ptr %7) #11
  call void @llvm.lifetime.end.p0(i64 8, ptr %6) #11
  %19 = load i1, ptr %3, align 1
  ret i1 %19
}

; Function Attrs: inlinehint nounwind uwtable
define internal ptr @ExecClearTuple(ptr noundef %0) #2 {
  %2 = alloca ptr, align 8
  store ptr %0, ptr %2, align 8
  %3 = load ptr, ptr %2, align 8
  %4 = getelementptr inbounds nuw %struct.TupleTableSlot, ptr %3, i32 0, i32 3
  %5 = load ptr, ptr %4, align 8
  %6 = getelementptr inbounds nuw %struct.TupleTableSlotOps, ptr %5, i32 0, i32 3
  %7 = load ptr, ptr %6, align 8
  %8 = load ptr, ptr %2, align 8
  call void %7(ptr noundef %8)
  %9 = load ptr, ptr %2, align 8
  ret ptr %9
}

; Function Attrs: nounwind uwtable
define dso_local zeroext i1 @ExecEvalPreOrderedDistinctMulti(ptr noundef %0, ptr noundef %1) #0 {
  %3 = alloca ptr, align 8
  %4 = alloca ptr, align 8
  %5 = alloca ptr, align 8
  %6 = alloca i8, align 1
  %7 = alloca ptr, align 8
  %8 = alloca ptr, align 8
  %9 = alloca i32, align 4
  store ptr %0, ptr %3, align 8
  store ptr %1, ptr %4, align 8
  call void @llvm.lifetime.start.p0(i64 8, ptr %5) #11
  %10 = load ptr, ptr %3, align 8
  %11 = getelementptr inbounds nuw %struct.AggState, ptr %10, i32 0, i32 13
  %12 = load ptr, ptr %11, align 8
  store ptr %12, ptr %5, align 8
  call void @llvm.lifetime.start.p0(i64 1, ptr %6) #11
  store i8 0, ptr %6, align 1
  call void @llvm.lifetime.start.p0(i64 8, ptr %7) #11
  call void @llvm.lifetime.start.p0(i64 8, ptr %8) #11
  call void @llvm.lifetime.start.p0(i64 4, ptr %9) #11
  store i32 0, ptr %9, align 4
  br label %13

13:                                               ; preds = %59, %2
  %14 = load i32, ptr %9, align 4
  %15 = load ptr, ptr %4, align 8
  %16 = getelementptr inbounds nuw %struct.AggStatePerTransData, ptr %15, i32 0, i32 4
  %17 = load i32, ptr %16, align 8
  %18 = icmp slt i32 %14, %17
  br i1 %18, label %20, label %19

19:                                               ; preds = %13
  call void @llvm.lifetime.end.p0(i64 4, ptr %9) #11
  br label %62

20:                                               ; preds = %13
  %21 = load ptr, ptr %4, align 8
  %22 = getelementptr inbounds nuw %struct.AggStatePerTransData, ptr %21, i32 0, i32 34
  %23 = load ptr, ptr %22, align 8
  %24 = getelementptr inbounds nuw %struct.FunctionCallInfoBaseData, ptr %23, i32 0, i32 6
  %25 = load i32, ptr %9, align 4
  %26 = add i32 %25, 1
  %27 = sext i32 %26 to i64
  %28 = getelementptr inbounds [0 x %struct.NullableDatum], ptr %24, i64 0, i64 %27
  %29 = getelementptr inbounds nuw %struct.NullableDatum, ptr %28, i32 0, i32 0
  %30 = load i64, ptr %29, align 8
  %31 = load ptr, ptr %4, align 8
  %32 = getelementptr inbounds nuw %struct.AggStatePerTransData, ptr %31, i32 0, i32 27
  %33 = load ptr, ptr %32, align 8
  %34 = getelementptr inbounds nuw %struct.TupleTableSlot, ptr %33, i32 0, i32 5
  %35 = load ptr, ptr %34, align 8
  %36 = load i32, ptr %9, align 4
  %37 = sext i32 %36 to i64
  %38 = getelementptr inbounds i64, ptr %35, i64 %37
  store i64 %30, ptr %38, align 8
  %39 = load ptr, ptr %4, align 8
  %40 = getelementptr inbounds nuw %struct.AggStatePerTransData, ptr %39, i32 0, i32 34
  %41 = load ptr, ptr %40, align 8
  %42 = getelementptr inbounds nuw %struct.FunctionCallInfoBaseData, ptr %41, i32 0, i32 6
  %43 = load i32, ptr %9, align 4
  %44 = add i32 %43, 1
  %45 = sext i32 %44 to i64
  %46 = getelementptr inbounds [0 x %struct.NullableDatum], ptr %42, i64 0, i64 %45
  %47 = getelementptr inbounds nuw %struct.NullableDatum, ptr %46, i32 0, i32 1
  %48 = load i8, ptr %47, align 8, !range !7, !noundef !8
  %49 = trunc i8 %48 to i1
  %50 = load ptr, ptr %4, align 8
  %51 = getelementptr inbounds nuw %struct.AggStatePerTransData, ptr %50, i32 0, i32 27
  %52 = load ptr, ptr %51, align 8
  %53 = getelementptr inbounds nuw %struct.TupleTableSlot, ptr %52, i32 0, i32 6
  %54 = load ptr, ptr %53, align 8
  %55 = load i32, ptr %9, align 4
  %56 = sext i32 %55 to i64
  %57 = getelementptr inbounds i8, ptr %54, i64 %56
  %58 = zext i1 %49 to i8
  store i8 %58, ptr %57, align 1
  br label %59

59:                                               ; preds = %20
  %60 = load i32, ptr %9, align 4
  %61 = add i32 %60, 1
  store i32 %61, ptr %9, align 4
  br label %13, !llvm.loop !28

62:                                               ; preds = %19
  %63 = load ptr, ptr %4, align 8
  %64 = getelementptr inbounds nuw %struct.AggStatePerTransData, ptr %63, i32 0, i32 27
  %65 = load ptr, ptr %64, align 8
  %66 = call ptr @ExecClearTuple(ptr noundef %65)
  %67 = load ptr, ptr %4, align 8
  %68 = getelementptr inbounds nuw %struct.AggStatePerTransData, ptr %67, i32 0, i32 3
  %69 = load i32, ptr %68, align 4
  %70 = trunc i32 %69 to i16
  %71 = load ptr, ptr %4, align 8
  %72 = getelementptr inbounds nuw %struct.AggStatePerTransData, ptr %71, i32 0, i32 27
  %73 = load ptr, ptr %72, align 8
  %74 = getelementptr inbounds nuw %struct.TupleTableSlot, ptr %73, i32 0, i32 2
  store i16 %70, ptr %74, align 2
  %75 = load ptr, ptr %4, align 8
  %76 = getelementptr inbounds nuw %struct.AggStatePerTransData, ptr %75, i32 0, i32 27
  %77 = load ptr, ptr %76, align 8
  %78 = call ptr @ExecStoreVirtualTuple(ptr noundef %77)
  %79 = load ptr, ptr %5, align 8
  %80 = getelementptr inbounds nuw %struct.ExprContext, ptr %79, i32 0, i32 3
  %81 = load ptr, ptr %80, align 8
  store ptr %81, ptr %7, align 8
  %82 = load ptr, ptr %5, align 8
  %83 = getelementptr inbounds nuw %struct.ExprContext, ptr %82, i32 0, i32 2
  %84 = load ptr, ptr %83, align 8
  store ptr %84, ptr %8, align 8
  %85 = load ptr, ptr %4, align 8
  %86 = getelementptr inbounds nuw %struct.AggStatePerTransData, ptr %85, i32 0, i32 27
  %87 = load ptr, ptr %86, align 8
  %88 = load ptr, ptr %5, align 8
  %89 = getelementptr inbounds nuw %struct.ExprContext, ptr %88, i32 0, i32 3
  store ptr %87, ptr %89, align 8
  %90 = load ptr, ptr %4, align 8
  %91 = getelementptr inbounds nuw %struct.AggStatePerTransData, ptr %90, i32 0, i32 28
  %92 = load ptr, ptr %91, align 8
  %93 = load ptr, ptr %5, align 8
  %94 = getelementptr inbounds nuw %struct.ExprContext, ptr %93, i32 0, i32 2
  store ptr %92, ptr %94, align 8
  %95 = load ptr, ptr %4, align 8
  %96 = getelementptr inbounds nuw %struct.AggStatePerTransData, ptr %95, i32 0, i32 32
  %97 = load i8, ptr %96, align 1, !range !7, !noundef !8
  %98 = trunc i8 %97 to i1
  br i1 %98, label %99, label %105

99:                                               ; preds = %62
  %100 = load ptr, ptr %4, align 8
  %101 = getelementptr inbounds nuw %struct.AggStatePerTransData, ptr %100, i32 0, i32 20
  %102 = load ptr, ptr %101, align 8
  %103 = load ptr, ptr %5, align 8
  %104 = call zeroext i1 @ExecQual(ptr noundef %102, ptr noundef %103)
  br i1 %104, label %125, label %105

105:                                              ; preds = %99, %62
  %106 = load ptr, ptr %4, align 8
  %107 = getelementptr inbounds nuw %struct.AggStatePerTransData, ptr %106, i32 0, i32 32
  %108 = load i8, ptr %107, align 1, !range !7, !noundef !8
  %109 = trunc i8 %108 to i1
  br i1 %109, label %110, label %115

110:                                              ; preds = %105
  %111 = load ptr, ptr %4, align 8
  %112 = getelementptr inbounds nuw %struct.AggStatePerTransData, ptr %111, i32 0, i32 28
  %113 = load ptr, ptr %112, align 8
  %114 = call ptr @ExecClearTuple(ptr noundef %113)
  br label %115

115:                                              ; preds = %110, %105
  %116 = load ptr, ptr %4, align 8
  %117 = getelementptr inbounds nuw %struct.AggStatePerTransData, ptr %116, i32 0, i32 32
  store i8 1, ptr %117, align 1
  %118 = load ptr, ptr %4, align 8
  %119 = getelementptr inbounds nuw %struct.AggStatePerTransData, ptr %118, i32 0, i32 28
  %120 = load ptr, ptr %119, align 8
  %121 = load ptr, ptr %4, align 8
  %122 = getelementptr inbounds nuw %struct.AggStatePerTransData, ptr %121, i32 0, i32 27
  %123 = load ptr, ptr %122, align 8
  %124 = call ptr @ExecCopySlot(ptr noundef %120, ptr noundef %123)
  store i8 1, ptr %6, align 1
  br label %125

125:                                              ; preds = %115, %99
  %126 = load ptr, ptr %7, align 8
  %127 = load ptr, ptr %5, align 8
  %128 = getelementptr inbounds nuw %struct.ExprContext, ptr %127, i32 0, i32 3
  store ptr %126, ptr %128, align 8
  %129 = load ptr, ptr %8, align 8
  %130 = load ptr, ptr %5, align 8
  %131 = getelementptr inbounds nuw %struct.ExprContext, ptr %130, i32 0, i32 2
  store ptr %129, ptr %131, align 8
  %132 = load i8, ptr %6, align 1, !range !7, !noundef !8
  %133 = trunc i8 %132 to i1
  call void @llvm.lifetime.end.p0(i64 8, ptr %8) #11
  call void @llvm.lifetime.end.p0(i64 8, ptr %7) #11
  call void @llvm.lifetime.end.p0(i64 1, ptr %6) #11
  call void @llvm.lifetime.end.p0(i64 8, ptr %5) #11
  ret i1 %133
}