; Function Attrs: nounwind uwtable
define dso_local noundef zeroext i1 @ExecEvalPreOrderedDistinctMulti(ptr noundef readonly captures(none) %0, ptr noundef captures(none) %1) local_unnamed_addr #0 {
  %3 = alloca i8, align 1
  %4 = getelementptr inbounds nuw i8, ptr %0, i64 296
  %5 = load ptr, ptr %4, align 8
  %6 = getelementptr inbounds nuw i8, ptr %1, i64 16
  %7 = load i32, ptr %6, align 8
  %8 = icmp sgt i32 %7, 0
  br i1 %8, label %.lr.ph, label %._crit_edge

.lr.ph:                                           ; preds = %2
  %9 = getelementptr inbounds nuw i8, ptr %1, i64 352
  %10 = getelementptr inbounds nuw i8, ptr %1, i64 304
  br label %34

._crit_edge:                                      ; preds = %34, %2
  %11 = getelementptr inbounds nuw i8, ptr %1, i64 304
  %12 = load ptr, ptr %11, align 8
  %13 = getelementptr inbounds nuw i8, ptr %12, i64 8
  %14 = load ptr, ptr %13, align 8
  %15 = getelementptr inbounds nuw i8, ptr %14, i64 24
  %16 = load ptr, ptr %15, align 8
  tail call void %16(ptr noundef %12) #18
  %17 = getelementptr inbounds nuw i8, ptr %1, i64 12
  %18 = load i32, ptr %17, align 4
  %19 = trunc i32 %18 to i16
  %20 = load ptr, ptr %11, align 8
  %21 = getelementptr inbounds nuw i8, ptr %20, i64 6
  store i16 %19, ptr %21, align 2
  %22 = load ptr, ptr %11, align 8
  %23 = tail call ptr @ExecStoreVirtualTuple(ptr noundef %22) #18
  %24 = getelementptr inbounds nuw i8, ptr %5, i64 24
  %25 = load ptr, ptr %24, align 8
  %26 = getelementptr inbounds nuw i8, ptr %5, i64 16
  %27 = load ptr, ptr %26, align 8
  %28 = load ptr, ptr %11, align 8
  store ptr %28, ptr %24, align 8
  %29 = getelementptr inbounds nuw i8, ptr %1, i64 312
  %30 = load ptr, ptr %29, align 8
  store ptr %30, ptr %26, align 8
  %31 = getelementptr inbounds nuw i8, ptr %1, i64 337
  %32 = load i8, ptr %31, align 1, !range !8, !noundef !9
  %33 = trunc nuw i8 %32 to i1
  br i1 %33, label %54, label %.thread

34:                                               ; preds = %.lr.ph, %34
  %indvars.iv = phi i64 [ 0, %.lr.ph ], [ %indvars.iv.next, %34 ]
  %35 = load ptr, ptr %9, align 8
  %36 = getelementptr inbounds nuw i8, ptr %35, i64 32
  %indvars.iv.next = add nuw nsw i64 %indvars.iv, 1
  %37 = getelementptr inbounds nuw [0 x %struct.NullableDatum], ptr %36, i64 0, i64 %indvars.iv.next
  %38 = load i64, ptr %37, align 8
  %39 = load ptr, ptr %10, align 8
  %40 = getelementptr inbounds nuw i8, ptr %39, i64 24
  %41 = load ptr, ptr %40, align 8
  %42 = getelementptr inbounds nuw i64, ptr %41, i64 %indvars.iv
  store i64 %38, ptr %42, align 8
  %43 = load ptr, ptr %9, align 8
  %.idx = shl nuw nsw i64 %indvars.iv.next, 4
  %44 = getelementptr i8, ptr %43, i64 40
  %45 = getelementptr i8, ptr %44, i64 %.idx
  %46 = load i8, ptr %45, align 8, !range !8, !noundef !9
  %47 = load ptr, ptr %10, align 8
  %48 = getelementptr inbounds nuw i8, ptr %47, i64 32
  %49 = load ptr, ptr %48, align 8
  %50 = getelementptr inbounds nuw i8, ptr %49, i64 %indvars.iv
  store i8 %46, ptr %50, align 1
  %51 = load i32, ptr %6, align 8
  %52 = sext i32 %51 to i64
  %53 = icmp slt i64 %indvars.iv.next, %52
  br i1 %53, label %34, label %._crit_edge, !llvm.loop !31

54:                                               ; preds = %._crit_edge
  %55 = getelementptr inbounds nuw i8, ptr %1, i64 280
  %56 = load ptr, ptr %55, align 8
  call void @llvm.lifetime.start.p0(i64 1, ptr nonnull %3) #18
  %57 = icmp eq ptr %56, null
  br i1 %57, label %ExecQual.exit.thread, label %ExecQual.exit

ExecQual.exit.thread:                             ; preds = %54
  call void @llvm.lifetime.end.p0(i64 1, ptr nonnull %3) #18
  br label %77

ExecQual.exit:                                    ; preds = %54
  %58 = getelementptr inbounds nuw i8, ptr %5, i64 40
  %59 = load ptr, ptr %58, align 8
  %60 = load ptr, ptr @CurrentMemoryContext, align 8
  store ptr %59, ptr @CurrentMemoryContext, align 8
  %61 = getelementptr inbounds nuw i8, ptr %56, i64 32
  %62 = load ptr, ptr %61, align 8
  %63 = call i64 %62(ptr noundef nonnull %56, ptr noundef nonnull %5, ptr noundef nonnull %3) #18
  store ptr %60, ptr @CurrentMemoryContext, align 8
  %.not = icmp eq i64 %63, 0
  call void @llvm.lifetime.end.p0(i64 1, ptr nonnull %3) #18
  br i1 %.not, label %64, label %77

64:                                               ; preds = %ExecQual.exit
  %.pre = load i8, ptr %31, align 1, !range !8
  %.pre39.pre = load ptr, ptr %29, align 8
  %65 = trunc nuw i8 %.pre to i1
  br i1 %65, label %66, label %.thread

66:                                               ; preds = %64
  %67 = getelementptr inbounds nuw i8, ptr %.pre39.pre, i64 8
  %68 = load ptr, ptr %67, align 8
  %69 = getelementptr inbounds nuw i8, ptr %68, i64 24
  %70 = load ptr, ptr %69, align 8
  call void %70(ptr noundef %.pre39.pre) #18
  %.pre38 = load ptr, ptr %29, align 8
  br label %.thread

.thread:                                          ; preds = %._crit_edge, %66, %64
  %71 = phi ptr [ %.pre38, %66 ], [ %.pre39.pre, %64 ], [ %30, %._crit_edge ]
  store i8 1, ptr %31, align 1
  %72 = load ptr, ptr %11, align 8
  %73 = getelementptr inbounds nuw i8, ptr %71, i64 8
  %74 = load ptr, ptr %73, align 8
  %75 = getelementptr inbounds nuw i8, ptr %74, i64 64
  %76 = load ptr, ptr %75, align 8
  call void %76(ptr noundef %71, ptr noundef %72) #18
  br label %77

77:                                               ; preds = %ExecQual.exit.thread, %.thread, %ExecQual.exit
  %.034 = phi i1 [ false, %ExecQual.exit ], [ true, %.thread ], [ false, %ExecQual.exit.thread ]
  store ptr %25, ptr %24, align 8
  store ptr %27, ptr %26, align 8
  ret i1 %.034
}